; Function Attrs: mustprogress nofree norecurse nosync nounwind willreturn memory(argmem: readwrite) uwtable
define internal void @"_ZNSt17_Function_handlerIFN2cv8GMatDescERKNS0_10GFrameDescEEZN6GOCVUV5Actor11extractRMatERKNS0_10MediaFrameERNS0_4RMatEE3$_1E9_M_invokeERKSt9_Any_dataS4_"(ptr dead_on_unwind noalias nocapture writable writeonly sret(%"struct.cv::GMatDesc") align 8 %0, ptr nocapture nonnull readnone align 8 %1, ptr nocapture noundef nonnull readonly align 4 dereferenceable(12) %2) #17 align 2 {
  %4 = getelementptr inbounds i8, ptr %2, i64 4
  %.val = load i64, ptr %4, align 4
  %.sroa.0.0.extract.trunc.i.i.i.i = trunc i64 %.val to i32
  %.sroa.4.0.extract.shift.i.i.i.i = lshr i64 %.val, 32
  %.sroa.4.0.extract.trunc.i.i.i.i = trunc nuw i64 %.sroa.4.0.extract.shift.i.i.i.i to i32
  %5 = sdiv i32 %.sroa.0.0.extract.trunc.i.i.i.i, 2
  %6 = sdiv i32 %.sroa.4.0.extract.trunc.i.i.i.i, 2
  %.sroa.4.0.insert.ext.i.i.i.i = zext i32 %6 to i64
  %.sroa.4.0.insert.shift.i.i.i.i = shl nuw i64 %.sroa.4.0.insert.ext.i.i.i.i, 32
  %.sroa.0.0.insert.ext.i.i.i.i = zext i32 %5 to i64
  %.sroa.0.0.insert.insert.i.i.i.i = or disjoint i64 %.sroa.4.0.insert.shift.i.i.i.i, %.sroa.0.0.insert.ext.i.i.i.i
  store i32 0, ptr %0, align 8, !alias.scope !161
  %7 = getelementptr inbounds i8, ptr %0, i64 4
  store i32 2, ptr %7, align 4, !alias.scope !161
  %8 = getelementptr inbounds i8, ptr %0, i64 8
  store i64 %.sroa.0.0.insert.insert.i.i.i.i, ptr %8, align 8, !alias.scope !161
  %9 = getelementptr inbounds i8, ptr %0, i64 16
  store i8 0, ptr %9, align 8, !alias.scope !161
  %10 = getelementptr inbounds i8, ptr %0, i64 24
  tail call void @llvm.memset.p0.i64(ptr noundef nonnull align 8 dereferenceable(24) %10, i8 0, i64 24, i1 false), !alias.scope !161
  ret void
}